target datalayout = "e-m:e-p270:32:32-p271:32:32-p272:64:64-i64:64-i128:128-f80:128-n8:16:32:64-S128"
target triple = "x86_64-pc-linux-gnu"

; Function Attrs: mustprogress uwtable
define void @_ZN6icu_7721RuleBasedNumberFormat23setDecimalFormatSymbolsERKNS_20DecimalFormatSymbolsE(ptr noundef nonnull align 8 dereferenceable(456) %0, ptr noundef nonnull align 8 dereferenceable(2579) %1) unnamed_addr #2 align 2 personality ptr @__gxx_personality_v0 {
  %3 = alloca ptr, align 8
  %4 = alloca ptr, align 8
  %5 = alloca i1, align 1
  %6 = alloca ptr, align 8
  %7 = alloca i32, align 4
  store ptr %0, ptr %3, align 8, !tbaa !3
  store ptr %1, ptr %4, align 8, !tbaa !203
  %8 = load ptr, ptr %3, align 8
  %9 = call noundef ptr @_ZN6icu_777UMemorynwEm(i64 noundef 2584) #14
  %10 = icmp eq ptr %9, null
  store i1 false, ptr %5, align 1
  br i1 %10, label %14, label %11

11:                                               ; preds = %2
  store i1 true, ptr %5, align 1
  %12 = load ptr, ptr %4, align 8, !tbaa !203
  invoke void @_ZN6icu_7720DecimalFormatSymbolsC1ERKS0_(ptr noundef nonnull align 8 dereferenceable(2579) %9, ptr noundef nonnull align 8 dereferenceable(2579) %12)
          to label %13 unwind label %19

13:                                               ; preds = %11
  br label %14

14:                                               ; preds = %13, %2
  %15 = phi ptr [ %9, %13 ], [ null, %2 ]
  %16 = load ptr, ptr %8, align 8, !tbaa !10
  %17 = getelementptr inbounds ptr, ptr %16, i64 49
  %18 = load ptr, ptr %17, align 8
  call void %18(ptr noundef nonnull align 8 dereferenceable(456) %8, ptr noundef %15)
  ret void

19:                                               ; preds = %11
  %20 = landingpad { ptr, i32 }
          cleanup
  %21 = extractvalue { ptr, i32 } %20, 0
  store ptr %21, ptr %6, align 8
  %22 = extractvalue { ptr, i32 } %20, 1
  store i32 %22, ptr %7, align 4
  %23 = load i1, ptr %5, align 1
  br i1 %23, label %24, label %25

24:                                               ; preds = %19
  call void @_ZN6icu_777UMemorydlEPv(ptr noundef %9) #14
  br label %25

25:                                               ; preds = %24, %19
  br label %26

26:                                               ; preds = %25
  %27 = load ptr, ptr %6, align 8
  %28 = load i32, ptr %7, align 4
  %29 = insertvalue { ptr, i32 } poison, ptr %27, 0
  %30 = insertvalue { ptr, i32 } %29, i32 %28, 1
  resume { ptr, i32 } %30
}