; Function Attrs: mustprogress uwtable
define void @_ZN6icu_7721RuleBasedNumberFormat23setDecimalFormatSymbolsERKNS_20DecimalFormatSymbolsE(ptr noundef nonnull align 8 dereferenceable(456) %0, ptr noundef nonnull align 8 dereferenceable(2579) %1) unnamed_addr #3 align 2 personality ptr @__gxx_personality_v0 {
  %3 = tail call noundef ptr @_ZN6icu_777UMemorynwEm(i64 noundef 2584) #21
  %4 = icmp eq ptr %3, null
  br i1 %4, label %6, label %5

5:                                                ; preds = %2
  invoke void @_ZN6icu_7720DecimalFormatSymbolsC1ERKS0_(ptr noundef nonnull align 8 dereferenceable(2579) %3, ptr noundef nonnull align 8 dereferenceable(2579) %1)
          to label %6 unwind label %10

6:                                                ; preds = %5, %2
  %7 = load ptr, ptr %0, align 8, !tbaa !3
  %8 = getelementptr inbounds nuw i8, ptr %7, i64 392
  %9 = load ptr, ptr %8, align 8
  tail call void %9(ptr noundef nonnull align 8 dereferenceable(456) %0, ptr noundef %3)
  ret void

10:                                               ; preds = %5
  %11 = landingpad { ptr, i32 }
          cleanup
  tail call void @_ZN6icu_777UMemorydlEPv(ptr noundef nonnull %3) #21
  resume { ptr, i32 } %11
}